target datalayout = "e-m:e-p270:32:32-p271:32:32-p272:64:64-i64:64-i128:128-f80:128-n8:16:32:64-S128"
target triple = "x86_64-pc-linux-gnu"

%"class.pxrInternal_v0_24__pxrReserved__::GfMatrix4d" = type { %"class.pxrInternal_v0_24__pxrReserved__::GfMatrixData" }
%"class.pxrInternal_v0_24__pxrReserved__::GfMatrixData" = type { [16 x double] }

; Function Attrs: mustprogress uwtable
define noundef i64 @_ZN32pxrInternal_v0_24__pxrReserved__15HdSceneDelegate15SampleTransformERKNS_7SdfPathEmPfPNS_10GfMatrix4dE(ptr noundef nonnull align 8 dereferenceable(24) %0, ptr noundef nonnull align 4 dereferenceable(8) %1, i64 noundef %2, ptr noundef %3, ptr noundef %4) unnamed_addr #0 align 2 {
  %6 = alloca i64, align 8
  %7 = alloca ptr, align 8
  %8 = alloca ptr, align 8
  %9 = alloca i64, align 8
  %10 = alloca ptr, align 8
  %11 = alloca ptr, align 8
  %12 = alloca %"class.pxrInternal_v0_24__pxrReserved__::GfMatrix4d", align 8
  store ptr %0, ptr %7, align 8
  store ptr %1, ptr %8, align 8
  store i64 %2, ptr %9, align 8
  store ptr %3, ptr %10, align 8
  store ptr %4, ptr %11, align 8
  %13 = load ptr, ptr %7, align 8
  %14 = load i64, ptr %9, align 8
  %15 = icmp ugt i64 %14, 0
  br i1 %15, label %16, label %25

16:                                               ; preds = %5
  %17 = load ptr, ptr %10, align 8
  %18 = getelementptr inbounds float, ptr %17, i64 0
  store float 0.000000e+00, ptr %18, align 4
  %19 = load ptr, ptr %8, align 8
  %20 = load ptr, ptr %13, align 8
  %21 = getelementptr inbounds ptr, ptr %20, i64 9
  %22 = load ptr, ptr %21, align 8
  call void %22(ptr dead_on_unwind writable sret(%"class.pxrInternal_v0_24__pxrReserved__::GfMatrix4d") align 8 %12, ptr noundef nonnull align 8 dereferenceable(24) %13, ptr noundef nonnull align 4 dereferenceable(8) %19)
  %23 = load ptr, ptr %11, align 8
  %24 = getelementptr inbounds %"class.pxrInternal_v0_24__pxrReserved__::GfMatrix4d", ptr %23, i64 0
  call void @llvm.memcpy.p0.p0.i64(ptr align 8 %24, ptr align 8 %12, i64 128, i1 false)
  store i64 1, ptr %6, align 8
  br label %26

25:                                               ; preds = %5
  store i64 0, ptr %6, align 8
  br label %26

26:                                               ; preds = %25, %16
  %27 = load i64, ptr %6, align 8
  ret i64 %27
}